; ModuleID = '11/1114.c'
source_filename = "11/1114.c"
target datalayout = "e-m:e-p270:32:32-p271:32:32-p272:64:64-i64:64-f80:128-n8:16:32:64-S128"
target triple = "x86_64-pc-linux-gnu"

@.str = private unnamed_addr constant [7 x i8] c"%d%d%d\00", align 1
@.str.1 = private unnamed_addr constant [3 x i8] c"%d\00", align 1

; Function Attrs: noinline nounwind uwtable
define dso_local i32 @nian(i32 %0) #0 {
  %2 = alloca i32, align 4
  %3 = alloca i32, align 4
  store i32 %0, i32* %3, align 4
  %4 = load i32, i32* %3, align 4
  %5 = srem i32 %4, 400
  %6 = icmp eq i32 %5, 0
  br i1 %6, label %15, label %7

7:                                                ; preds = %1
  %8 = load i32, i32* %3, align 4
  %9 = srem i32 %8, 100
  %10 = icmp ne i32 %9, 0
  br i1 %10, label %11, label %16

11:                                               ; preds = %7
  %12 = load i32, i32* %3, align 4
  %13 = srem i32 %12, 4
  %14 = icmp eq i32 %13, 0
  br i1 %14, label %15, label %16

15:                                               ; preds = %11, %1
  store i32 1, i32* %2, align 4
  br label %17

16:                                               ; preds = %11, %7
  store i32 0, i32* %2, align 4
  br label %17

17:                                               ; preds = %16, %15
  %18 = load i32, i32* %2, align 4
  ret i32 %18
}

; Function Attrs: noinline nounwind uwtable
define dso_local i32 @main() #0 {
  %1 = alloca i32, align 4
  %2 = alloca i32, align 4
  %3 = alloca i32, align 4
  %4 = alloca i32, align 4
  %5 = alloca i32, align 4
  %6 = alloca i32, align 4
  %7 = alloca [12 x i32], align 16
  store i32 0, i32* %1, align 4
  store i32 0, i32* %3, align 4
  %8 = call i32 (i8*, ...) @__isoc99_scanf(i8* getelementptr inbounds ([7 x i8], [7 x i8]* @.str, i64 0, i64 0), i32* %4, i32* %5, i32* %6)
  %9 = getelementptr inbounds [12 x i32], [12 x i32]* %7, i64 0, i64 11
  store i32 31, i32* %9, align 4
  %10 = getelementptr inbounds [12 x i32], [12 x i32]* %7, i64 0, i64 9
  store i32 31, i32* %10, align 4
  %11 = getelementptr inbounds [12 x i32], [12 x i32]* %7, i64 0, i64 7
  store i32 31, i32* %11, align 4
  %12 = getelementptr inbounds [12 x i32], [12 x i32]* %7, i64 0, i64 6
  store i32 31, i32* %12, align 8
  %13 = getelementptr inbounds [12 x i32], [12 x i32]* %7, i64 0, i64 4
  store i32 31, i32* %13, align 16
  %14 = getelementptr inbounds [12 x i32], [12 x i32]* %7, i64 0, i64 2
  store i32 31, i32* %14, align 8
  %15 = getelementptr inbounds [12 x i32], [12 x i32]* %7, i64 0, i64 0
  store i32 31, i32* %15, align 16
  %16 = getelementptr inbounds [12 x i32], [12 x i32]* %7, i64 0, i64 10
  store i32 30, i32* %16, align 8
  %17 = getelementptr inbounds [12 x i32], [12 x i32]* %7, i64 0, i64 8
  store i32 30, i32* %17, align 16
  %18 = getelementptr inbounds [12 x i32], [12 x i32]* %7, i64 0, i64 5
  store i32 30, i32* %18, align 4
  %19 = getelementptr inbounds [12 x i32], [12 x i32]* %7, i64 0, i64 3
  store i32 30, i32* %19, align 4
  %20 = load i32, i32* %4, align 4
  %21 = call i32 @nian(i32 %20)
  %22 = icmp ne i32 %21, 0
  br i1 %22, label %23, label %25

23:                                               ; preds = %0
  %24 = getelementptr inbounds [12 x i32], [12 x i32]* %7, i64 0, i64 1
  store i32 29, i32* %24, align 4
  br label %27

25:                                               ; preds = %0
  %26 = getelementptr inbounds [12 x i32], [12 x i32]* %7, i64 0, i64 1
  store i32 28, i32* %26, align 4
  br label %27

27:                                               ; preds = %25, %23
  store i32 0, i32* %2, align 4
  br label %28

28:                                               ; preds = %40, %27
  %29 = load i32, i32* %2, align 4
  %30 = load i32, i32* %5, align 4
  %31 = sub nsw i32 %30, 1
  %32 = icmp slt i32 %29, %31
  br i1 %32, label %33, label %43

33:                                               ; preds = %28
  %34 = load i32, i32* %2, align 4
  %35 = sext i32 %34 to i64
  %36 = getelementptr inbounds [12 x i32], [12 x i32]* %7, i64 0, i64 %35
  %37 = load i32, i32* %36, align 4
  %38 = load i32, i32* %3, align 4
  %39 = add nsw i32 %38, %37
  store i32 %39, i32* %3, align 4
  br label %40

40:                                               ; preds = %33
  %41 = load i32, i32* %2, align 4
  %42 = add nsw i32 %41, 1
  store i32 %42, i32* %2, align 4
  br label %28

43:                                               ; preds = %28
  %44 = load i32, i32* %6, align 4
  %45 = load i32, i32* %3, align 4
  %46 = add nsw i32 %45, %44
  store i32 %46, i32* %3, align 4
  %47 = load i32, i32* %3, align 4
  %48 = call i32 (i8*, ...) @printf(i8* getelementptr inbounds ([3 x i8], [3 x i8]* @.str.1, i64 0, i64 0), i32 %47)
  ret i32 0
}

declare dso_local i32 @__isoc99_scanf(i8*, ...) #1

declare dso_local i32 @printf(i8*, ...) #1


!llvm.module.flags = !{!0}
!llvm.ident = !{!1}

!0 = !{i32 1, !"wchar_size", i32 4}
!1 = !{!"clang version 10.0.0-4ubuntu1 "}
