; ModuleID = 'source-C-CXX/10/1114.c'
source_filename = "source-C-CXX/10/1114.c"
target datalayout = "e-m:e-p270:32:32-p271:32:32-p272:64:64-i64:64-f80:128-n8:16:32:64-S128"
target triple = "x86_64-pc-linux-gnu"

@.str = private unnamed_addr constant [7 x i8] c"%d%d%d\00", align 1
@.str.1 = private unnamed_addr constant [3 x i8] c"%d\00", align 1

; Function Attrs: mustprogress nofree norecurse nosync nounwind readnone sspstrong uwtable willreturn
define dso_local i32 @nian(i32 %0) local_unnamed_addr #0 {
  %2 = srem i32 %0, 400
  %3 = icmp eq i32 %2, 0
  br i1 %3, label %11, label %4

4:                                                ; preds = %1
  %5 = srem i32 %0, 100
  %6 = icmp ne i32 %5, 0
  %7 = and i32 %0, 3
  %8 = icmp eq i32 %7, 0
  %9 = and i1 %6, %8
  %10 = zext i1 %9 to i32
  br label %11

11:                                               ; preds = %4, %1
  %12 = phi i32 [ 1, %1 ], [ %10, %4 ]
  ret i32 %12
}

; Function Attrs: nofree nounwind sspstrong uwtable
define dso_local i32 @main() local_unnamed_addr #1 {
  %1 = alloca i32, align 4
  %2 = alloca i32, align 4
  %3 = alloca i32, align 4
  %4 = alloca [12 x i32], align 16
  %5 = bitcast i32* %1 to i8*
  call void @llvm.lifetime.start.p0i8(i64 4, i8* nonnull %5) #5
  %6 = bitcast i32* %2 to i8*
  call void @llvm.lifetime.start.p0i8(i64 4, i8* nonnull %6) #5
  %7 = bitcast i32* %3 to i8*
  call void @llvm.lifetime.start.p0i8(i64 4, i8* nonnull %7) #5
  %8 = bitcast [12 x i32]* %4 to i8*
  call void @llvm.lifetime.start.p0i8(i64 48, i8* nonnull %8) #5
  %9 = call i32 (i8*, ...) @__isoc99_scanf(i8* getelementptr inbounds ([7 x i8], [7 x i8]* @.str, i64 0, i64 0), i32* nonnull %1, i32* nonnull %2, i32* nonnull %3)
  %10 = getelementptr inbounds [12 x i32], [12 x i32]* %4, i64 0, i64 11
  store i32 31, i32* %10, align 4, !tbaa !5
  %11 = getelementptr inbounds [12 x i32], [12 x i32]* %4, i64 0, i64 6
  %12 = getelementptr inbounds [12 x i32], [12 x i32]* %4, i64 0, i64 2
  %13 = getelementptr inbounds [12 x i32], [12 x i32]* %4, i64 0, i64 0
  store i32 31, i32* %13, align 16, !tbaa !5
  %14 = getelementptr inbounds [12 x i32], [12 x i32]* %4, i64 0, i64 10
  store i32 30, i32* %14, align 8, !tbaa !5
  %15 = bitcast i32* %11 to <4 x i32>*
  store <4 x i32> <i32 31, i32 31, i32 30, i32 31>, <4 x i32>* %15, align 8, !tbaa !5
  %16 = bitcast i32* %12 to <4 x i32>*
  store <4 x i32> <i32 31, i32 30, i32 31, i32 30>, <4 x i32>* %16, align 8, !tbaa !5
  %17 = load i32, i32* %1, align 4, !tbaa !5
  %18 = srem i32 %17, 400
  %19 = icmp eq i32 %18, 0
  br i1 %19, label %27, label %20

20:                                               ; preds = %0
  %21 = srem i32 %17, 100
  %22 = icmp eq i32 %21, 0
  %23 = and i32 %17, 3
  %24 = icmp ne i32 %23, 0
  %25 = or i1 %22, %24
  %26 = select i1 %25, i32 28, i32 29
  br label %27

27:                                               ; preds = %20, %0
  %28 = phi i32 [ 29, %0 ], [ %26, %20 ]
  %29 = getelementptr inbounds [12 x i32], [12 x i32]* %4, i64 0, i64 1
  store i32 %28, i32* %29, align 4, !tbaa !5
  %30 = load i32, i32* %2, align 4, !tbaa !5
  %31 = icmp sgt i32 %30, 1
  br i1 %31, label %32, label %134

32:                                               ; preds = %27
  %33 = add nsw i32 %30, -1
  %34 = zext i32 %33 to i64
  %35 = icmp eq i32 %33, 1
  br i1 %35, label %134, label %36, !llvm.loop !9

36:                                               ; preds = %32
  %37 = add nsw i64 %34, -1
  %38 = icmp ult i64 %37, 8
  br i1 %38, label %123, label %39

39:                                               ; preds = %36
  %40 = and i64 %37, -8
  %41 = or i64 %40, 1
  %42 = add nsw i64 %40, -8
  %43 = lshr exact i64 %42, 3
  %44 = add nuw nsw i64 %43, 1
  %45 = and i64 %44, 3
  %46 = icmp ult i64 %42, 24
  br i1 %46, label %93, label %47

47:                                               ; preds = %39
  %48 = and i64 %44, 4611686018427387900
  br label %49

49:                                               ; preds = %49, %47
  %50 = phi i64 [ 0, %47 ], [ %90, %49 ]
  %51 = phi <4 x i32> [ <i32 31, i32 0, i32 0, i32 0>, %47 ], [ %88, %49 ]
  %52 = phi <4 x i32> [ zeroinitializer, %47 ], [ %89, %49 ]
  %53 = phi i64 [ %48, %47 ], [ %91, %49 ]
  %54 = or i64 %50, 1
  %55 = getelementptr inbounds [12 x i32], [12 x i32]* %4, i64 0, i64 %54
  %56 = bitcast i32* %55 to <4 x i32>*
  %57 = load <4 x i32>, <4 x i32>* %56, align 4, !tbaa !5
  %58 = getelementptr inbounds i32, i32* %55, i64 4
  %59 = bitcast i32* %58 to <4 x i32>*
  %60 = load <4 x i32>, <4 x i32>* %59, align 4, !tbaa !5
  %61 = add <4 x i32> %57, %51
  %62 = add <4 x i32> %60, %52
  %63 = or i64 %50, 9
  %64 = getelementptr inbounds [12 x i32], [12 x i32]* %4, i64 0, i64 %63
  %65 = bitcast i32* %64 to <4 x i32>*
  %66 = load <4 x i32>, <4 x i32>* %65, align 4, !tbaa !5
  %67 = getelementptr inbounds i32, i32* %64, i64 4
  %68 = bitcast i32* %67 to <4 x i32>*
  %69 = load <4 x i32>, <4 x i32>* %68, align 4, !tbaa !5
  %70 = add <4 x i32> %66, %61
  %71 = add <4 x i32> %69, %62
  %72 = or i64 %50, 17
  %73 = getelementptr inbounds [12 x i32], [12 x i32]* %4, i64 0, i64 %72
  %74 = bitcast i32* %73 to <4 x i32>*
  %75 = load <4 x i32>, <4 x i32>* %74, align 4, !tbaa !5
  %76 = getelementptr inbounds i32, i32* %73, i64 4
  %77 = bitcast i32* %76 to <4 x i32>*
  %78 = load <4 x i32>, <4 x i32>* %77, align 4, !tbaa !5
  %79 = add <4 x i32> %75, %70
  %80 = add <4 x i32> %78, %71
  %81 = or i64 %50, 25
  %82 = getelementptr inbounds [12 x i32], [12 x i32]* %4, i64 0, i64 %81
  %83 = bitcast i32* %82 to <4 x i32>*
  %84 = load <4 x i32>, <4 x i32>* %83, align 4, !tbaa !5
  %85 = getelementptr inbounds i32, i32* %82, i64 4
  %86 = bitcast i32* %85 to <4 x i32>*
  %87 = load <4 x i32>, <4 x i32>* %86, align 4, !tbaa !5
  %88 = add <4 x i32> %84, %79
  %89 = add <4 x i32> %87, %80
  %90 = add nuw i64 %50, 32
  %91 = add i64 %53, -4
  %92 = icmp eq i64 %91, 0
  br i1 %92, label %93, label %49, !llvm.loop !11

93:                                               ; preds = %49, %39
  %94 = phi <4 x i32> [ undef, %39 ], [ %88, %49 ]
  %95 = phi <4 x i32> [ undef, %39 ], [ %89, %49 ]
  %96 = phi i64 [ 0, %39 ], [ %90, %49 ]
  %97 = phi <4 x i32> [ <i32 31, i32 0, i32 0, i32 0>, %39 ], [ %88, %49 ]
  %98 = phi <4 x i32> [ zeroinitializer, %39 ], [ %89, %49 ]
  %99 = icmp eq i64 %45, 0
  br i1 %99, label %117, label %100

100:                                              ; preds = %93, %100
  %101 = phi i64 [ %114, %100 ], [ %96, %93 ]
  %102 = phi <4 x i32> [ %112, %100 ], [ %97, %93 ]
  %103 = phi <4 x i32> [ %113, %100 ], [ %98, %93 ]
  %104 = phi i64 [ %115, %100 ], [ %45, %93 ]
  %105 = or i64 %101, 1
  %106 = getelementptr inbounds [12 x i32], [12 x i32]* %4, i64 0, i64 %105
  %107 = bitcast i32* %106 to <4 x i32>*
  %108 = load <4 x i32>, <4 x i32>* %107, align 4, !tbaa !5
  %109 = getelementptr inbounds i32, i32* %106, i64 4
  %110 = bitcast i32* %109 to <4 x i32>*
  %111 = load <4 x i32>, <4 x i32>* %110, align 4, !tbaa !5
  %112 = add <4 x i32> %108, %102
  %113 = add <4 x i32> %111, %103
  %114 = add nuw i64 %101, 8
  %115 = add i64 %104, -1
  %116 = icmp eq i64 %115, 0
  br i1 %116, label %117, label %100, !llvm.loop !13

117:                                              ; preds = %100, %93
  %118 = phi <4 x i32> [ %94, %93 ], [ %112, %100 ]
  %119 = phi <4 x i32> [ %95, %93 ], [ %113, %100 ]
  %120 = add <4 x i32> %119, %118
  %121 = call i32 @llvm.vector.reduce.add.v4i32(<4 x i32> %120)
  %122 = icmp eq i64 %37, %40
  br i1 %122, label %134, label %123

123:                                              ; preds = %36, %117
  %124 = phi i64 [ 1, %36 ], [ %41, %117 ]
  %125 = phi i32 [ 31, %36 ], [ %121, %117 ]
  br label %126

126:                                              ; preds = %123, %126
  %127 = phi i64 [ %132, %126 ], [ %124, %123 ]
  %128 = phi i32 [ %131, %126 ], [ %125, %123 ]
  %129 = getelementptr inbounds [12 x i32], [12 x i32]* %4, i64 0, i64 %127
  %130 = load i32, i32* %129, align 4, !tbaa !5
  %131 = add nsw i32 %130, %128
  %132 = add nuw nsw i64 %127, 1
  %133 = icmp eq i64 %132, %34
  br i1 %133, label %134, label %126, !llvm.loop !15

134:                                              ; preds = %126, %32, %117, %27
  %135 = phi i32 [ 0, %27 ], [ 31, %32 ], [ %121, %117 ], [ %131, %126 ]
  %136 = load i32, i32* %3, align 4, !tbaa !5
  %137 = add nsw i32 %136, %135
  %138 = call i32 (i8*, ...) @printf(i8* nonnull dereferenceable(1) getelementptr inbounds ([3 x i8], [3 x i8]* @.str.1, i64 0, i64 0), i32 %137)
  call void @llvm.lifetime.end.p0i8(i64 48, i8* nonnull %8) #5
  call void @llvm.lifetime.end.p0i8(i64 4, i8* nonnull %7) #5
  call void @llvm.lifetime.end.p0i8(i64 4, i8* nonnull %6) #5
  call void @llvm.lifetime.end.p0i8(i64 4, i8* nonnull %5) #5
  ret i32 0
}

; Function Attrs: argmemonly mustprogress nofree nosync nounwind willreturn
declare void @llvm.lifetime.start.p0i8(i64 immarg, i8* nocapture) #2

; Function Attrs: nofree nounwind
declare noundef i32 @__isoc99_scanf(i8* nocapture noundef readonly, ...) local_unnamed_addr #3

; Function Attrs: nofree nounwind
declare noundef i32 @printf(i8* nocapture noundef readonly, ...) local_unnamed_addr #3

; Function Attrs: argmemonly mustprogress nofree nosync nounwind willreturn
declare void @llvm.lifetime.end.p0i8(i64 immarg, i8* nocapture) #2

; Function Attrs: nofree nosync nounwind readnone willreturn
declare i32 @llvm.vector.reduce.add.v4i32(<4 x i32>) #4


!llvm.module.flags = !{!0, !1, !2, !3}
!llvm.ident = !{!4}

!0 = !{i32 1, !"wchar_size", i32 4}
!1 = !{i32 7, !"PIC Level", i32 2}
!2 = !{i32 7, !"PIE Level", i32 2}
!3 = !{i32 7, !"uwtable", i32 1}
!4 = !{!"clang version 13.0.0"}
!5 = !{!6, !6, i64 0}
!6 = !{!"int", !7, i64 0}
!7 = !{!"omnipotent char", !8, i64 0}
!8 = !{!"Simple C/C++ TBAA"}
!9 = distinct !{!9, !10}
!10 = !{!"llvm.loop.mustprogress"}
!11 = distinct !{!11, !10, !12}
!12 = !{!"llvm.loop.isvectorized", i32 1}
!13 = distinct !{!13, !14}
!14 = !{!"llvm.loop.unroll.disable"}
!15 = distinct !{!15, !10, !16, !12}
!16 = !{!"llvm.loop.unroll.runtime.disable"}
